target datalayout = "e-m:e-p270:32:32-p271:32:32-p272:64:64-i64:64-i128:128-f80:128-n8:16:32:64-S128"
target triple = "x86_64-pc-linux-gnu"

%struct.PyVarObject = type { %struct._object, i64 }
%struct._object = type { %union.anon, ptr }
%union.anon = type { i64 }

; Function Attrs: inlinehint nounwind uwtable
define internal i64 @Py_SIZE(ptr noundef %0) #3 {
  %2 = alloca ptr, align 8
  store ptr %0, ptr %2, align 8, !tbaa !42
  %3 = load ptr, ptr %2, align 8, !tbaa !42
  %4 = getelementptr inbounds nuw %struct.PyVarObject, ptr %3, i32 0, i32 1
  %5 = load i64, ptr %4, align 8, !tbaa !159
  ret i64 %5
}

; Function Attrs: nounwind uwtable
define internal ptr @OrderedDict_pop_impl(ptr noundef %0, ptr noundef %1, ptr noundef %2) #0 {
  %4 = alloca ptr, align 8
  %5 = alloca ptr, align 8
  %6 = alloca ptr, align 8
  %7 = alloca ptr, align 8
  %8 = alloca i64, align 8
  %9 = alloca i32, align 4
  store ptr %0, ptr %5, align 8, !tbaa !4
  store ptr %1, ptr %6, align 8, !tbaa !42
  store ptr %2, ptr %7, align 8, !tbaa !42
  call void @llvm.lifetime.start.p0(i64 8, ptr %8) #7
  %10 = load ptr, ptr %6, align 8, !tbaa !42
  %11 = call i64 @PyObject_Hash(ptr noundef %10)
  store i64 %11, ptr %8, align 8, !tbaa !55
  %12 = load i64, ptr %8, align 8, !tbaa !55
  %13 = icmp eq i64 %12, -1
  br i1 %13, label %14, label %15

14:                                               ; preds = %3
  store ptr null, ptr %4, align 8
  store i32 1, ptr %9, align 4
  br label %21

15:                                               ; preds = %3
  %16 = load ptr, ptr %5, align 8, !tbaa !4
  %17 = load ptr, ptr %6, align 8, !tbaa !42
  %18 = load ptr, ptr %7, align 8, !tbaa !42
  %19 = load i64, ptr %8, align 8, !tbaa !55
  %20 = call ptr @_odict_popkey_hash(ptr noundef %16, ptr noundef %17, ptr noundef %18, i64 noundef %19)
  store ptr %20, ptr %4, align 8
  store i32 1, ptr %9, align 4
  br label %21

21:                                               ; preds = %15, %14
  call void @llvm.lifetime.end.p0(i64 8, ptr %8) #7
  %22 = load ptr, ptr %4, align 8
  ret ptr %22
}

; Function Attrs: inlinehint nounwind uwtable
define internal i64 @PyTuple_GET_SIZE(ptr noundef %0) #3 {
  %2 = alloca ptr, align 8
  %3 = alloca ptr, align 8
  store ptr %0, ptr %2, align 8, !tbaa !42
  call void @llvm.lifetime.start.p0(i64 8, ptr %3) #7
  %4 = load ptr, ptr %2, align 8, !tbaa !42
  store ptr %4, ptr %3, align 8, !tbaa !44
  %5 = load ptr, ptr %3, align 8, !tbaa !44
  %6 = call i64 @Py_SIZE(ptr noundef %5)
  call void @llvm.lifetime.end.p0(i64 8, ptr %3) #7
  ret i64 %6
}

; Function Attrs: nounwind uwtable
define internal ptr @OrderedDict_pop(ptr noundef %0, ptr noundef %1, i64 noundef %2, ptr noundef %3) #0 {
  %5 = alloca ptr, align 8
  %6 = alloca ptr, align 8
  %7 = alloca i64, align 8
  %8 = alloca ptr, align 8
  %9 = alloca ptr, align 8
  %10 = alloca [2 x ptr], align 16
  %11 = alloca i64, align 8
  %12 = alloca ptr, align 8
  %13 = alloca ptr, align 8
  store ptr %0, ptr %5, align 8, !tbaa !42
  store ptr %1, ptr %6, align 8, !tbaa !53
  store i64 %2, ptr %7, align 8, !tbaa !55
  store ptr %3, ptr %8, align 8, !tbaa !42
  call void @llvm.lifetime.start.p0(i64 8, ptr %9) #7
  store ptr null, ptr %9, align 8, !tbaa !42
  call void @llvm.lifetime.start.p0(i64 16, ptr %10) #7
  call void @llvm.lifetime.start.p0(i64 8, ptr %11) #7
  %14 = load i64, ptr %7, align 8, !tbaa !55
  %15 = load ptr, ptr %8, align 8, !tbaa !42
  %16 = icmp ne ptr %15, null
  br i1 %16, label %17, label %20

17:                                               ; preds = %4
  %18 = load ptr, ptr %8, align 8, !tbaa !42
  %19 = call i64 @PyTuple_GET_SIZE(ptr noundef %18)
  br label %21

20:                                               ; preds = %4
  br label %21

21:                                               ; preds = %20, %17
  %22 = phi i64 [ %19, %17 ], [ 0, %20 ]
  %23 = add i64 %14, %22
  %24 = sub i64 %23, 1
  store i64 %24, ptr %11, align 8, !tbaa !55
  call void @llvm.lifetime.start.p0(i64 8, ptr %12) #7
  call void @llvm.lifetime.start.p0(i64 8, ptr %13) #7
  store ptr null, ptr %13, align 8, !tbaa !42
  %25 = load ptr, ptr %8, align 8, !tbaa !42
  %26 = icmp eq ptr %25, null
  br i1 %26, label %27, label %38

27:                                               ; preds = %21
  %28 = load i64, ptr %7, align 8, !tbaa !55
  %29 = icmp sle i64 1, %28
  br i1 %29, label %30, label %38

30:                                               ; preds = %27
  %31 = load i64, ptr %7, align 8, !tbaa !55
  %32 = icmp sle i64 %31, 2
  br i1 %32, label %33, label %38

33:                                               ; preds = %30
  %34 = load ptr, ptr %6, align 8, !tbaa !53
  %35 = icmp ne ptr %34, null
  br i1 %35, label %36, label %38

36:                                               ; preds = %33
  %37 = load ptr, ptr %6, align 8, !tbaa !53
  br label %44

38:                                               ; preds = %33, %30, %27, %21
  %39 = load ptr, ptr %6, align 8, !tbaa !53
  %40 = load i64, ptr %7, align 8, !tbaa !55
  %41 = load ptr, ptr %8, align 8, !tbaa !42
  %42 = getelementptr inbounds [2 x ptr], ptr %10, i64 0, i64 0
  %43 = call ptr @_PyArg_UnpackKeywords(ptr noundef %39, i64 noundef %40, ptr noundef null, ptr noundef %41, ptr noundef @OrderedDict_pop._parser, i32 noundef 1, i32 noundef 2, i32 noundef 0, i32 noundef 0, ptr noundef %42)
  br label %44

44:                                               ; preds = %38, %36
  %45 = phi ptr [ %37, %36 ], [ %43, %38 ]
  store ptr %45, ptr %6, align 8, !tbaa !53
  %46 = load ptr, ptr %6, align 8, !tbaa !53
  %47 = icmp ne ptr %46, null
  br i1 %47, label %49, label %48

48:                                               ; preds = %44
  br label %65

49:                                               ; preds = %44
  %50 = load ptr, ptr %6, align 8, !tbaa !53
  %51 = getelementptr ptr, ptr %50, i64 0
  %52 = load ptr, ptr %51, align 8, !tbaa !42
  store ptr %52, ptr %12, align 8, !tbaa !42
  %53 = load i64, ptr %11, align 8, !tbaa !55
  %54 = icmp ne i64 %53, 0
  br i1 %54, label %56, label %55

55:                                               ; preds = %49
  br label %60

56:                                               ; preds = %49
  %57 = load ptr, ptr %6, align 8, !tbaa !53
  %58 = getelementptr ptr, ptr %57, i64 1
  %59 = load ptr, ptr %58, align 8, !tbaa !42
  store ptr %59, ptr %13, align 8, !tbaa !42
  br label %60

60:                                               ; preds = %56, %55
  %61 = load ptr, ptr %5, align 8, !tbaa !42
  %62 = load ptr, ptr %12, align 8, !tbaa !42
  %63 = load ptr, ptr %13, align 8, !tbaa !42
  %64 = call ptr @OrderedDict_pop_impl(ptr noundef %61, ptr noundef %62, ptr noundef %63)
  store ptr %64, ptr %9, align 8, !tbaa !42
  br label %65

65:                                               ; preds = %60, %48
  %66 = load ptr, ptr %9, align 8, !tbaa !42
  call void @llvm.lifetime.end.p0(i64 8, ptr %13) #7
  call void @llvm.lifetime.end.p0(i64 8, ptr %12) #7
  call void @llvm.lifetime.end.p0(i64 8, ptr %11) #7
  call void @llvm.lifetime.end.p0(i64 16, ptr %10) #7
  call void @llvm.lifetime.end.p0(i64 8, ptr %9) #7
  ret ptr %66
}