; Function Attrs: nounwind uwtable
define internal ptr @OrderedDict_pop(ptr noundef %0, ptr noundef %1, i64 noundef %2, ptr noundef %3) #0 {
  %5 = alloca [2 x ptr], align 16
  call void @llvm.lifetime.start.p0(i64 16, ptr nonnull %5) #8
  %.not = icmp eq ptr %3, null
  br i1 %.not, label %8, label %.thread

.thread:                                          ; preds = %4
  %6 = getelementptr i8, ptr %3, i64 16
  %.val = load i64, ptr %6, align 8, !tbaa !146
  %7 = add i64 %.val, %2
  br label %12

8:                                                ; preds = %4
  %9 = add i64 %2, -1
  %10 = icmp ult i64 %9, 2
  %11 = icmp ne ptr %1, null
  %or.cond5 = and i1 %11, %10
  br i1 %or.cond5, label %.thread31, label %12

12:                                               ; preds = %8, %.thread
  %13 = phi i64 [ %7, %.thread ], [ %2, %8 ]
  %14 = call ptr @_PyArg_UnpackKeywords(ptr noundef %1, i64 noundef %2, ptr noundef null, ptr noundef %3, ptr noundef nonnull @OrderedDict_pop._parser, i32 noundef 1, i32 noundef 2, i32 noundef 0, i32 noundef 0, ptr noundef nonnull %5) #8
  %.not27 = icmp eq ptr %14, null
  br i1 %.not27, label %OrderedDict_pop_impl.exit, label %.thread31

.thread31:                                        ; preds = %8, %12
  %15 = phi ptr [ %14, %12 ], [ %1, %8 ]
  %16 = phi i64 [ %13, %12 ], [ %2, %8 ]
  %17 = load ptr, ptr %15, align 8, !tbaa !53
  %.not28 = icmp eq i64 %16, 1
  br i1 %.not28, label %21, label %18

18:                                               ; preds = %.thread31
  %19 = getelementptr i8, ptr %15, i64 8
  %20 = load ptr, ptr %19, align 8, !tbaa !53
  br label %21

21:                                               ; preds = %.thread31, %18
  %.0 = phi ptr [ %20, %18 ], [ null, %.thread31 ]
  %22 = call i64 @PyObject_Hash(ptr noundef %17) #8
  %23 = icmp eq i64 %22, -1
  br i1 %23, label %OrderedDict_pop_impl.exit, label %24

24:                                               ; preds = %21
  %25 = call fastcc ptr @_odict_popkey_hash(ptr noundef %0, ptr noundef %17, ptr noundef %.0, i64 noundef %22)
  br label %OrderedDict_pop_impl.exit

OrderedDict_pop_impl.exit:                        ; preds = %24, %21, %12
  %.023 = phi ptr [ null, %12 ], [ %25, %24 ], [ null, %21 ]
  call void @llvm.lifetime.end.p0(i64 16, ptr nonnull %5) #8
  ret ptr %.023
}